target datalayout = "e-m:e-p270:32:32-p271:32:32-p272:64:64-i64:64-i128:128-f80:128-n8:16:32:64-S128"
target triple = "x86_64-pc-linux-gnu"

%struct.UCharIterator = type { ptr, i32, i32, i32, i32, i32, ptr, ptr, ptr, ptr, ptr, ptr, ptr, ptr, ptr, ptr }

; Function Attrs: mustprogress uwtable
define internal noundef i32 @_ZL21characterIteratorNextP13UCharIterator(ptr noundef %0) #0 {
  %2 = alloca i32, align 4
  %3 = alloca ptr, align 8
  store ptr %0, ptr %3, align 8, !tbaa !3
  %4 = load ptr, ptr %3, align 8, !tbaa !3
  %5 = getelementptr inbounds nuw %struct.UCharIterator, ptr %4, i32 0, i32 0
  %6 = load ptr, ptr %5, align 8, !tbaa !14
  %7 = load ptr, ptr %6, align 8, !tbaa !27
  %8 = getelementptr inbounds ptr, ptr %7, i64 7
  %9 = load ptr, ptr %8, align 8
  %10 = call noundef signext i8 %9(ptr noundef nonnull align 8 dereferenceable(8) %6)
  %11 = icmp ne i8 %10, 0
  br i1 %11, label %12, label %21

12:                                               ; preds = %1
  %13 = load ptr, ptr %3, align 8, !tbaa !3
  %14 = getelementptr inbounds nuw %struct.UCharIterator, ptr %13, i32 0, i32 0
  %15 = load ptr, ptr %14, align 8, !tbaa !14
  %16 = load ptr, ptr %15, align 8, !tbaa !27
  %17 = getelementptr inbounds ptr, ptr %16, i64 5
  %18 = load ptr, ptr %17, align 8
  %19 = call noundef zeroext i16 %18(ptr noundef nonnull align 8 dereferenceable(8) %15)
  %20 = zext i16 %19 to i32
  store i32 %20, ptr %2, align 4
  br label %22

21:                                               ; preds = %1
  store i32 -1, ptr %2, align 4
  br label %22

22:                                               ; preds = %21, %12
  %23 = load i32, ptr %2, align 4
  ret i32 %23
}