; Function Attrs: mustprogress uwtable
define internal noundef range(i32 -1, 65536) i32 @_ZL21characterIteratorNextP13UCharIterator(ptr noundef readonly captures(none) %0) #0 {
  %2 = load ptr, ptr %0, align 8, !tbaa !10
  %3 = load ptr, ptr %2, align 8, !tbaa !17
  %4 = getelementptr inbounds nuw i8, ptr %3, i64 56
  %5 = load ptr, ptr %4, align 8
  %6 = tail call noundef signext i8 %5(ptr noundef nonnull align 8 dereferenceable(8) %2)
  %.not = icmp eq i8 %6, 0
  br i1 %.not, label %14, label %7

7:                                                ; preds = %1
  %8 = load ptr, ptr %0, align 8, !tbaa !10
  %9 = load ptr, ptr %8, align 8, !tbaa !17
  %10 = getelementptr inbounds nuw i8, ptr %9, i64 40
  %11 = load ptr, ptr %10, align 8
  %12 = tail call noundef zeroext i16 %11(ptr noundef nonnull align 8 dereferenceable(8) %8)
  %13 = zext i16 %12 to i32
  br label %14

14:                                               ; preds = %1, %7
  %.0 = phi i32 [ %13, %7 ], [ -1, %1 ]
  ret i32 %.0
}